; ModuleID = '7/1157.c'
source_filename = "7/1157.c"
target datalayout = "e-m:e-p270:32:32-p271:32:32-p272:64:64-i64:64-f80:128-n8:16:32:64-S128"
target triple = "x86_64-pc-linux-gnu"

@.str = private unnamed_addr constant [3 x i8] c"%s\00", align 1
@.str.1 = private unnamed_addr constant [3 x i8] c"%c\00", align 1
@.str.2 = private unnamed_addr constant [2 x i8] c"\0A\00", align 1

; Function Attrs: noinline nounwind uwtable
define dso_local void @main() #0 {
  %1 = alloca [260 x i8], align 16
  %2 = alloca [260 x i8], align 16
  %3 = alloca [260 x i8], align 16
  %4 = alloca i32, align 4
  %5 = alloca i32, align 4
  %6 = alloca i32, align 4
  %7 = alloca i32, align 4
  %8 = alloca i32, align 4
  store i32 0, i32* %8, align 4
  %9 = getelementptr inbounds [260 x i8], [260 x i8]* %1, i64 0, i64 0
  %10 = call i32 (i8*, ...) @__isoc99_scanf(i8* getelementptr inbounds ([3 x i8], [3 x i8]* @.str, i64 0, i64 0), i8* %9)
  %11 = getelementptr inbounds [260 x i8], [260 x i8]* %2, i64 0, i64 0
  %12 = call i32 (i8*, ...) @__isoc99_scanf(i8* getelementptr inbounds ([3 x i8], [3 x i8]* @.str, i64 0, i64 0), i8* %11)
  %13 = getelementptr inbounds [260 x i8], [260 x i8]* %3, i64 0, i64 0
  %14 = call i32 (i8*, ...) @__isoc99_scanf(i8* getelementptr inbounds ([3 x i8], [3 x i8]* @.str, i64 0, i64 0), i8* %13)
  %15 = getelementptr inbounds [260 x i8], [260 x i8]* %1, i64 0, i64 0
  %16 = call i64 @strlen(i8* %15) #3
  %17 = trunc i64 %16 to i32
  store i32 %17, i32* %4, align 4
  %18 = getelementptr inbounds [260 x i8], [260 x i8]* %2, i64 0, i64 0
  %19 = call i64 @strlen(i8* %18) #3
  %20 = trunc i64 %19 to i32
  store i32 %20, i32* %5, align 4
  store i32 0, i32* %7, align 4
  br label %21

21:                                               ; preds = %66, %0
  %22 = load i32, i32* %7, align 4
  %23 = load i32, i32* %4, align 4
  %24 = icmp slt i32 %22, %23
  br i1 %24, label %25, label %69

25:                                               ; preds = %21
  %26 = load i32, i32* %7, align 4
  %27 = sext i32 %26 to i64
  %28 = getelementptr inbounds [260 x i8], [260 x i8]* %1, i64 0, i64 %27
  %29 = load i8, i8* %28, align 1
  %30 = sext i8 %29 to i32
  %31 = getelementptr inbounds [260 x i8], [260 x i8]* %2, i64 0, i64 0
  %32 = load i8, i8* %31, align 16
  %33 = sext i8 %32 to i32
  %34 = icmp eq i32 %30, %33
  br i1 %34, label %35, label %65

35:                                               ; preds = %25
  store i32 1, i32* %6, align 4
  br label %36

36:                                               ; preds = %56, %35
  %37 = load i32, i32* %6, align 4
  %38 = load i32, i32* %5, align 4
  %39 = icmp slt i32 %37, %38
  br i1 %39, label %40, label %59

40:                                               ; preds = %36
  %41 = load i32, i32* %7, align 4
  %42 = load i32, i32* %6, align 4
  %43 = add nsw i32 %41, %42
  %44 = sext i32 %43 to i64
  %45 = getelementptr inbounds [260 x i8], [260 x i8]* %1, i64 0, i64 %44
  %46 = load i8, i8* %45, align 1
  %47 = sext i8 %46 to i32
  %48 = load i32, i32* %6, align 4
  %49 = sext i32 %48 to i64
  %50 = getelementptr inbounds [260 x i8], [260 x i8]* %2, i64 0, i64 %49
  %51 = load i8, i8* %50, align 1
  %52 = sext i8 %51 to i32
  %53 = icmp ne i32 %47, %52
  br i1 %53, label %54, label %55

54:                                               ; preds = %40
  br label %59

55:                                               ; preds = %40
  br label %56

56:                                               ; preds = %55
  %57 = load i32, i32* %6, align 4
  %58 = add nsw i32 %57, 1
  store i32 %58, i32* %6, align 4
  br label %36

59:                                               ; preds = %54, %36
  %60 = load i32, i32* %6, align 4
  %61 = load i32, i32* %5, align 4
  %62 = icmp eq i32 %60, %61
  br i1 %62, label %63, label %64

63:                                               ; preds = %59
  store i32 1, i32* %8, align 4
  br label %69

64:                                               ; preds = %59
  br label %65

65:                                               ; preds = %64, %25
  br label %66

66:                                               ; preds = %65
  %67 = load i32, i32* %7, align 4
  %68 = add nsw i32 %67, 1
  store i32 %68, i32* %7, align 4
  br label %21

69:                                               ; preds = %63, %21
  %70 = load i32, i32* %8, align 4
  %71 = icmp ne i32 %70, 0
  br i1 %71, label %72, label %122

72:                                               ; preds = %69
  store i32 0, i32* %8, align 4
  br label %73

73:                                               ; preds = %84, %72
  %74 = load i32, i32* %8, align 4
  %75 = load i32, i32* %7, align 4
  %76 = icmp slt i32 %74, %75
  br i1 %76, label %77, label %87

77:                                               ; preds = %73
  %78 = load i32, i32* %8, align 4
  %79 = sext i32 %78 to i64
  %80 = getelementptr inbounds [260 x i8], [260 x i8]* %1, i64 0, i64 %79
  %81 = load i8, i8* %80, align 1
  %82 = sext i8 %81 to i32
  %83 = call i32 (i8*, ...) @printf(i8* getelementptr inbounds ([3 x i8], [3 x i8]* @.str.1, i64 0, i64 0), i32 %82)
  br label %84

84:                                               ; preds = %77
  %85 = load i32, i32* %8, align 4
  %86 = add nsw i32 %85, 1
  store i32 %86, i32* %8, align 4
  br label %73

87:                                               ; preds = %73
  store i32 0, i32* %8, align 4
  br label %88

88:                                               ; preds = %99, %87
  %89 = load i32, i32* %8, align 4
  %90 = load i32, i32* %5, align 4
  %91 = icmp slt i32 %89, %90
  br i1 %91, label %92, label %102

92:                                               ; preds = %88
  %93 = load i32, i32* %8, align 4
  %94 = sext i32 %93 to i64
  %95 = getelementptr inbounds [260 x i8], [260 x i8]* %3, i64 0, i64 %94
  %96 = load i8, i8* %95, align 1
  %97 = sext i8 %96 to i32
  %98 = call i32 (i8*, ...) @printf(i8* getelementptr inbounds ([3 x i8], [3 x i8]* @.str.1, i64 0, i64 0), i32 %97)
  br label %99

99:                                               ; preds = %92
  %100 = load i32, i32* %8, align 4
  %101 = add nsw i32 %100, 1
  store i32 %101, i32* %8, align 4
  br label %88

102:                                              ; preds = %88
  %103 = load i32, i32* %7, align 4
  %104 = load i32, i32* %5, align 4
  %105 = add nsw i32 %103, %104
  store i32 %105, i32* %8, align 4
  br label %106

106:                                              ; preds = %117, %102
  %107 = load i32, i32* %8, align 4
  %108 = load i32, i32* %4, align 4
  %109 = icmp slt i32 %107, %108
  br i1 %109, label %110, label %120

110:                                              ; preds = %106
  %111 = load i32, i32* %8, align 4
  %112 = sext i32 %111 to i64
  %113 = getelementptr inbounds [260 x i8], [260 x i8]* %1, i64 0, i64 %112
  %114 = load i8, i8* %113, align 1
  %115 = sext i8 %114 to i32
  %116 = call i32 (i8*, ...) @printf(i8* getelementptr inbounds ([3 x i8], [3 x i8]* @.str.1, i64 0, i64 0), i32 %115)
  br label %117

117:                                              ; preds = %110
  %118 = load i32, i32* %8, align 4
  %119 = add nsw i32 %118, 1
  store i32 %119, i32* %8, align 4
  br label %106

120:                                              ; preds = %106
  %121 = call i32 (i8*, ...) @printf(i8* getelementptr inbounds ([2 x i8], [2 x i8]* @.str.2, i64 0, i64 0))
  br label %125

122:                                              ; preds = %69
  %123 = getelementptr inbounds [260 x i8], [260 x i8]* %1, i64 0, i64 0
  %124 = call i32 (i8*, ...) @printf(i8* getelementptr inbounds ([3 x i8], [3 x i8]* @.str, i64 0, i64 0), i8* %123)
  br label %125

125:                                              ; preds = %122, %120
  ret void
}

declare dso_local i32 @__isoc99_scanf(i8*, ...) #1

; Function Attrs: nounwind readonly
declare dso_local i64 @strlen(i8*) #2

declare dso_local i32 @printf(i8*, ...) #1


!llvm.module.flags = !{!0}
!llvm.ident = !{!1}

!0 = !{i32 1, !"wchar_size", i32 4}
!1 = !{!"clang version 10.0.0-4ubuntu1 "}
